target datalayout = "e-m:e-p270:32:32-p271:32:32-p272:64:64-i64:64-i128:128-f80:128-n8:16:32:64-S128"
target triple = "x86_64-pc-linux-gnu"

%struct.SDL_AtomicInt = type { i32 }
%struct.SDL_EventWatchList = type { ptr, %struct.SDL_EventWatcher, ptr, i32, i8, i8 }
%struct.SDL_EventWatcher = type { ptr, ptr, i8 }
%struct.anon = type { ptr, i8, %struct.SDL_AtomicInt, i32, ptr, ptr, ptr }

@SDL_event_watchers = internal global %struct.SDL_EventWatchList zeroinitializer, align 8
@SDL_EventQ = internal global { ptr, i8, [3 x i8], %struct.SDL_AtomicInt, i32, [4 x i8], ptr, ptr, ptr } zeroinitializer, align 8

; Function Attrs: nounwind uwtable
define hidden zeroext i1 @SDL_StartEventLoop() #0 {
  %1 = alloca i1, align 1
  %2 = load ptr, ptr @SDL_EventQ, align 8
  %3 = icmp ne ptr %2, null
  br i1 %3, label %10, label %4

4:                                                ; preds = %0
  %5 = call ptr @SDL_CreateMutex_REAL()
  store ptr %5, ptr @SDL_EventQ, align 8
  %6 = load ptr, ptr @SDL_EventQ, align 8
  %7 = icmp eq ptr %6, null
  br i1 %7, label %8, label %9

8:                                                ; preds = %4
  store i1 false, ptr %1, align 1
  br label %17

9:                                                ; preds = %4
  br label %10

10:                                               ; preds = %9, %0
  %11 = load ptr, ptr @SDL_EventQ, align 8
  call void @SDL_LockMutex_REAL(ptr noundef %11)
  %12 = call zeroext i1 @SDL_InitEventWatchList(ptr noundef @SDL_event_watchers)
  br i1 %12, label %15, label %13

13:                                               ; preds = %10
  %14 = load ptr, ptr @SDL_EventQ, align 8
  call void @SDL_UnlockMutex_REAL(ptr noundef %14)
  store i1 false, ptr %1, align 1
  br label %17

15:                                               ; preds = %10
  call void @SDL_InitWindowEventWatch()
  store i8 1, ptr getelementptr inbounds nuw (%struct.anon, ptr @SDL_EventQ, i32 0, i32 1), align 8
  %16 = load ptr, ptr @SDL_EventQ, align 8
  call void @SDL_UnlockMutex_REAL(ptr noundef %16)
  store i1 true, ptr %1, align 1
  br label %17

17:                                               ; preds = %15, %13, %8
  %18 = load i1, ptr %1, align 1
  ret i1 %18
}