; Function Attrs: nounwind uwtable
define hidden noundef zeroext i1 @SDL_StartEventLoop() local_unnamed_addr #0 {
  %1 = load ptr, ptr @SDL_EventQ, align 8
  %.not = icmp eq ptr %1, null
  br i1 %.not, label %2, label %5

2:                                                ; preds = %0
  %3 = tail call ptr @SDL_CreateMutex_REAL() #8
  store ptr %3, ptr @SDL_EventQ, align 8
  %4 = icmp eq ptr %3, null
  br i1 %4, label %10, label %5

5:                                                ; preds = %2, %0
  %6 = phi ptr [ %3, %2 ], [ %1, %0 ]
  tail call void @SDL_LockMutex_REAL(ptr noundef nonnull %6) #8
  %7 = tail call zeroext i1 @SDL_InitEventWatchList(ptr noundef nonnull @SDL_event_watchers) #8
  br i1 %7, label %8, label %.sink.split

8:                                                ; preds = %5
  tail call void @SDL_InitWindowEventWatch() #8
  store i8 1, ptr getelementptr inbounds nuw (i8, ptr @SDL_EventQ, i64 8), align 8
  br label %.sink.split

.sink.split:                                      ; preds = %5, %8
  %9 = load ptr, ptr @SDL_EventQ, align 8
  tail call void @SDL_UnlockMutex_REAL(ptr noundef %9) #8
  br label %10

10:                                               ; preds = %.sink.split, %2
  %.0 = phi i1 [ false, %2 ], [ %7, %.sink.split ]
  ret i1 %.0
}